target datalayout = "e-m:e-p270:32:32-p271:32:32-p272:64:64-i64:64-i128:128-f80:128-n8:16:32:64-S128"
target triple = "x86_64-pc-linux-gnu"

@.str.31 = private unnamed_addr constant [9 x i8] c"NO_ERROR\00", align 1
@.str.32 = private unnamed_addr constant [15 x i8] c"INTERNAL_ERROR\00", align 1
@.str.33 = private unnamed_addr constant [19 x i8] c"CONNECTION_REFUSED\00", align 1
@.str.34 = private unnamed_addr constant [19 x i8] c"FLOW_CONTROL_ERROR\00", align 1
@.str.35 = private unnamed_addr constant [19 x i8] c"STREAM_LIMIT_ERROR\00", align 1
@.str.36 = private unnamed_addr constant [19 x i8] c"STREAM_STATE_ERROR\00", align 1
@.str.37 = private unnamed_addr constant [17 x i8] c"FINAL_SIZE_ERROR\00", align 1
@.str.38 = private unnamed_addr constant [21 x i8] c"FRAME_ENCODING_ERROR\00", align 1
@.str.39 = private unnamed_addr constant [26 x i8] c"TRANSPORT_PARAMETER_ERROR\00", align 1
@.str.40 = private unnamed_addr constant [26 x i8] c"CONNECTION_ID_LIMIT_ERROR\00", align 1
@.str.41 = private unnamed_addr constant [19 x i8] c"PROTOCOL_VIOLATION\00", align 1
@.str.42 = private unnamed_addr constant [14 x i8] c"INVALID_TOKEN\00", align 1
@.str.43 = private unnamed_addr constant [18 x i8] c"APPLICATION_ERROR\00", align 1
@.str.44 = private unnamed_addr constant [23 x i8] c"CRYPTO_BUFFER_EXCEEDED\00", align 1
@.str.45 = private unnamed_addr constant [17 x i8] c"KEY_UPDATE_ERROR\00", align 1
@.str.46 = private unnamed_addr constant [19 x i8] c"AEAD_LIMIT_REACHED\00", align 1
@.str.47 = private unnamed_addr constant [15 x i8] c"NO_VIABLE_PATH\00", align 1

; Function Attrs: nounwind uwtable
define ptr @ossl_quic_err_to_string(i64 noundef %0) #0 {
  %2 = alloca ptr, align 8
  %3 = alloca i64, align 8
  store i64 %0, ptr %3, align 8, !tbaa !8
  %4 = load i64, ptr %3, align 8, !tbaa !8
  switch i64 %4, label %22 [
    i64 0, label %5
    i64 1, label %6
    i64 2, label %7
    i64 3, label %8
    i64 4, label %9
    i64 5, label %10
    i64 6, label %11
    i64 7, label %12
    i64 8, label %13
    i64 9, label %14
    i64 10, label %15
    i64 11, label %16
    i64 12, label %17
    i64 13, label %18
    i64 14, label %19
    i64 15, label %20
    i64 16, label %21
  ]

5:                                                ; preds = %1
  store ptr @.str.31, ptr %2, align 8
  br label %23

6:                                                ; preds = %1
  store ptr @.str.32, ptr %2, align 8
  br label %23

7:                                                ; preds = %1
  store ptr @.str.33, ptr %2, align 8
  br label %23

8:                                                ; preds = %1
  store ptr @.str.34, ptr %2, align 8
  br label %23

9:                                                ; preds = %1
  store ptr @.str.35, ptr %2, align 8
  br label %23

10:                                               ; preds = %1
  store ptr @.str.36, ptr %2, align 8
  br label %23

11:                                               ; preds = %1
  store ptr @.str.37, ptr %2, align 8
  br label %23

12:                                               ; preds = %1
  store ptr @.str.38, ptr %2, align 8
  br label %23

13:                                               ; preds = %1
  store ptr @.str.39, ptr %2, align 8
  br label %23

14:                                               ; preds = %1
  store ptr @.str.40, ptr %2, align 8
  br label %23

15:                                               ; preds = %1
  store ptr @.str.41, ptr %2, align 8
  br label %23

16:                                               ; preds = %1
  store ptr @.str.42, ptr %2, align 8
  br label %23

17:                                               ; preds = %1
  store ptr @.str.43, ptr %2, align 8
  br label %23

18:                                               ; preds = %1
  store ptr @.str.44, ptr %2, align 8
  br label %23

19:                                               ; preds = %1
  store ptr @.str.45, ptr %2, align 8
  br label %23

20:                                               ; preds = %1
  store ptr @.str.46, ptr %2, align 8
  br label %23

21:                                               ; preds = %1
  store ptr @.str.47, ptr %2, align 8
  br label %23

22:                                               ; preds = %1
  store ptr null, ptr %2, align 8
  br label %23

23:                                               ; preds = %22, %21, %20, %19, %18, %17, %16, %15, %14, %13, %12, %11, %10, %9, %8, %7, %6, %5
  %24 = load ptr, ptr %2, align 8
  ret ptr %24
}