; Function Attrs: mustprogress nofree norecurse nosync nounwind willreturn memory(none) uwtable
define noundef ptr @ossl_quic_err_to_string(i64 noundef %0) local_unnamed_addr #9 {
  %2 = icmp ult i64 %0, 17
  br i1 %2, label %switch.lookup, label %3

switch.lookup:                                    ; preds = %1
  %switch.gep = getelementptr inbounds nuw [17 x ptr], ptr @switch.table.ossl_quic_err_to_string, i64 0, i64 %0
  %switch.load = load ptr, ptr %switch.gep, align 8
  br label %3

3:                                                ; preds = %1, %switch.lookup
  %.0 = phi ptr [ %switch.load, %switch.lookup ], [ null, %1 ]
  ret ptr %.0
}